target datalayout = "e-m:e-p270:32:32-p271:32:32-p272:64:64-i64:64-i128:128-f80:128-n8:16:32:64-S128"
target triple = "x86_64-pc-linux-gnu"

@.str.18 = private unnamed_addr constant [14 x i8] c"external hook\00", align 1

; Function Attrs: nounwind uwtable
define internal ptr @unmakemask(i32 noundef %0, ptr noundef %1) #0 {
  %3 = alloca i32, align 4
  %4 = alloca ptr, align 8
  %5 = alloca i32, align 4
  store i32 %0, ptr %3, align 4, !tbaa !11
  store ptr %1, ptr %4, align 8, !tbaa !14
  call void @llvm.lifetime.start.p0(i64 4, ptr %5) #4
  store i32 0, ptr %5, align 4, !tbaa !11
  %6 = load i32, ptr %3, align 4, !tbaa !11
  %7 = and i32 %6, 1
  %8 = icmp ne i32 %7, 0
  br i1 %8, label %9, label %15

9:                                                ; preds = %2
  %10 = load ptr, ptr %4, align 8, !tbaa !14
  %11 = load i32, ptr %5, align 4, !tbaa !11
  %12 = add nsw i32 %11, 1
  store i32 %12, ptr %5, align 4, !tbaa !11
  %13 = sext i32 %11 to i64
  %14 = getelementptr inbounds i8, ptr %10, i64 %13
  store i8 99, ptr %14, align 1, !tbaa !28
  br label %15

15:                                               ; preds = %9, %2
  %16 = load i32, ptr %3, align 4, !tbaa !11
  %17 = and i32 %16, 2
  %18 = icmp ne i32 %17, 0
  br i1 %18, label %19, label %25

19:                                               ; preds = %15
  %20 = load ptr, ptr %4, align 8, !tbaa !14
  %21 = load i32, ptr %5, align 4, !tbaa !11
  %22 = add nsw i32 %21, 1
  store i32 %22, ptr %5, align 4, !tbaa !11
  %23 = sext i32 %21 to i64
  %24 = getelementptr inbounds i8, ptr %20, i64 %23
  store i8 114, ptr %24, align 1, !tbaa !28
  br label %25

25:                                               ; preds = %19, %15
  %26 = load i32, ptr %3, align 4, !tbaa !11
  %27 = and i32 %26, 4
  %28 = icmp ne i32 %27, 0
  br i1 %28, label %29, label %35

29:                                               ; preds = %25
  %30 = load ptr, ptr %4, align 8, !tbaa !14
  %31 = load i32, ptr %5, align 4, !tbaa !11
  %32 = add nsw i32 %31, 1
  store i32 %32, ptr %5, align 4, !tbaa !11
  %33 = sext i32 %31 to i64
  %34 = getelementptr inbounds i8, ptr %30, i64 %33
  store i8 108, ptr %34, align 1, !tbaa !28
  br label %35

35:                                               ; preds = %29, %25
  %36 = load ptr, ptr %4, align 8, !tbaa !14
  %37 = load i32, ptr %5, align 4, !tbaa !11
  %38 = sext i32 %37 to i64
  %39 = getelementptr inbounds i8, ptr %36, i64 %38
  store i8 0, ptr %39, align 1, !tbaa !28
  %40 = load ptr, ptr %4, align 8, !tbaa !14
  call void @llvm.lifetime.end.p0(i64 4, ptr %5) #4
  ret ptr %40
}

; Function Attrs: nounwind uwtable
define internal ptr @getthread(ptr noundef %0, ptr noundef %1) #0 {
  %3 = alloca ptr, align 8
  %4 = alloca ptr, align 8
  %5 = alloca ptr, align 8
  store ptr %0, ptr %4, align 8, !tbaa !4
  store ptr %1, ptr %5, align 8, !tbaa !29
  %6 = load ptr, ptr %4, align 8, !tbaa !4
  %7 = call i32 @lua_type(ptr noundef %6, i32 noundef 1)
  %8 = icmp eq i32 %7, 8
  br i1 %8, label %9, label %13

9:                                                ; preds = %2
  %10 = load ptr, ptr %5, align 8, !tbaa !29
  store i32 1, ptr %10, align 4, !tbaa !11
  %11 = load ptr, ptr %4, align 8, !tbaa !4
  %12 = call ptr @lua_tothread(ptr noundef %11, i32 noundef 1)
  store ptr %12, ptr %3, align 8
  br label %16

13:                                               ; preds = %2
  %14 = load ptr, ptr %5, align 8, !tbaa !29
  store i32 0, ptr %14, align 4, !tbaa !11
  %15 = load ptr, ptr %4, align 8, !tbaa !4
  store ptr %15, ptr %3, align 8
  br label %16

16:                                               ; preds = %13, %9
  %17 = load ptr, ptr %3, align 8
  ret ptr %17
}

; Function Attrs: nounwind uwtable
define internal i32 @db_gethook(ptr noundef %0) #0 {
  %2 = alloca ptr, align 8
  %3 = alloca i32, align 4
  %4 = alloca ptr, align 8
  %5 = alloca [5 x i8], align 1
  %6 = alloca i32, align 4
  %7 = alloca ptr, align 8
  store ptr %0, ptr %2, align 8, !tbaa !4
  call void @llvm.lifetime.start.p0(i64 4, ptr %3) #4
  call void @llvm.lifetime.start.p0(i64 8, ptr %4) #4
  %8 = load ptr, ptr %2, align 8, !tbaa !4
  %9 = call ptr @getthread(ptr noundef %8, ptr noundef %3)
  store ptr %9, ptr %4, align 8, !tbaa !4
  call void @llvm.lifetime.start.p0(i64 5, ptr %5) #4
  call void @llvm.lifetime.start.p0(i64 4, ptr %6) #4
  %10 = load ptr, ptr %4, align 8, !tbaa !4
  %11 = call i32 @lua_gethookmask(ptr noundef %10)
  store i32 %11, ptr %6, align 4, !tbaa !11
  call void @llvm.lifetime.start.p0(i64 8, ptr %7) #4
  %12 = load ptr, ptr %4, align 8, !tbaa !4
  %13 = call ptr @lua_gethook(ptr noundef %12)
  store ptr %13, ptr %7, align 8, !tbaa !13
  %14 = load ptr, ptr %7, align 8, !tbaa !13
  %15 = icmp ne ptr %14, null
  br i1 %15, label %16, label %21

16:                                               ; preds = %1
  %17 = load ptr, ptr %7, align 8, !tbaa !13
  %18 = icmp ne ptr %17, @hookf
  br i1 %18, label %19, label %21

19:                                               ; preds = %16
  %20 = load ptr, ptr %2, align 8, !tbaa !4
  call void @lua_pushlstring(ptr noundef %20, ptr noundef @.str.18, i64 noundef 13)
  br label %27

21:                                               ; preds = %16, %1
  %22 = load ptr, ptr %2, align 8, !tbaa !4
  call void @gethooktable(ptr noundef %22)
  %23 = load ptr, ptr %2, align 8, !tbaa !4
  %24 = load ptr, ptr %4, align 8, !tbaa !4
  call void @lua_pushlightuserdata(ptr noundef %23, ptr noundef %24)
  %25 = load ptr, ptr %2, align 8, !tbaa !4
  call void @lua_rawget(ptr noundef %25, i32 noundef -2)
  %26 = load ptr, ptr %2, align 8, !tbaa !4
  call void @lua_remove(ptr noundef %26, i32 noundef -2)
  br label %27

27:                                               ; preds = %21, %19
  %28 = load ptr, ptr %2, align 8, !tbaa !4
  %29 = load i32, ptr %6, align 4, !tbaa !11
  %30 = getelementptr inbounds [5 x i8], ptr %5, i64 0, i64 0
  %31 = call ptr @unmakemask(i32 noundef %29, ptr noundef %30)
  call void @lua_pushstring(ptr noundef %28, ptr noundef %31)
  %32 = load ptr, ptr %2, align 8, !tbaa !4
  %33 = load ptr, ptr %4, align 8, !tbaa !4
  %34 = call i32 @lua_gethookcount(ptr noundef %33)
  %35 = sext i32 %34 to i64
  call void @lua_pushinteger(ptr noundef %32, i64 noundef %35)
  call void @llvm.lifetime.end.p0(i64 8, ptr %7) #4
  call void @llvm.lifetime.end.p0(i64 4, ptr %6) #4
  call void @llvm.lifetime.end.p0(i64 5, ptr %5) #4
  call void @llvm.lifetime.end.p0(i64 8, ptr %4) #4
  call void @llvm.lifetime.end.p0(i64 4, ptr %3) #4
  ret i32 3
}