; Function Attrs: nounwind uwtable
define internal noundef i32 @db_gethook(ptr noundef %0) #0 {
  %2 = alloca [5 x i8], align 1
  %3 = tail call i32 @lua_type(ptr noundef %0, i32 noundef 1) #8
  %4 = icmp eq i32 %3, 8
  br i1 %4, label %5, label %getthread.exit

5:                                                ; preds = %1
  %6 = tail call ptr @lua_tothread(ptr noundef %0, i32 noundef 1) #8
  br label %getthread.exit

getthread.exit:                                   ; preds = %1, %5
  %.0.i = phi ptr [ %6, %5 ], [ %0, %1 ]
  call void @llvm.lifetime.start.p0(i64 5, ptr nonnull %2) #8
  %7 = tail call i32 @lua_gethookmask(ptr noundef %.0.i) #8
  %8 = tail call ptr @lua_gethook(ptr noundef %.0.i) #8
  %9 = icmp ne ptr %8, null
  %10 = icmp ne ptr %8, @hookf
  %or.cond = and i1 %9, %10
  br i1 %or.cond, label %11, label %12

11:                                               ; preds = %getthread.exit
  tail call void @lua_pushlstring(ptr noundef %0, ptr noundef nonnull @.str.18, i64 noundef 13) #8
  br label %13

12:                                               ; preds = %getthread.exit
  tail call fastcc void @gethooktable(ptr noundef %0)
  tail call void @lua_pushlightuserdata(ptr noundef %0, ptr noundef %.0.i) #8
  tail call void @lua_rawget(ptr noundef %0, i32 noundef -2) #8
  tail call void @lua_remove(ptr noundef %0, i32 noundef -2) #8
  br label %13

13:                                               ; preds = %12, %11
  %14 = and i32 %7, 1
  %.not.i = icmp eq i32 %14, 0
  br i1 %.not.i, label %16, label %15

15:                                               ; preds = %13
  store i8 99, ptr %2, align 1, !tbaa !9
  br label %16

16:                                               ; preds = %15, %13
  %.0.i15 = phi i32 [ 1, %15 ], [ 0, %13 ]
  %17 = and i32 %7, 2
  %.not11.i = icmp eq i32 %17, 0
  br i1 %.not11.i, label %22, label %18

18:                                               ; preds = %16
  %19 = add nuw nsw i32 %.0.i15, 1
  %20 = zext nneg i32 %.0.i15 to i64
  %21 = getelementptr inbounds nuw i8, ptr %2, i64 %20
  store i8 114, ptr %21, align 1, !tbaa !9
  br label %22

22:                                               ; preds = %18, %16
  %.1.i = phi i32 [ %19, %18 ], [ %.0.i15, %16 ]
  %23 = and i32 %7, 4
  %.not12.i = icmp eq i32 %23, 0
  br i1 %.not12.i, label %unmakemask.exit, label %24

24:                                               ; preds = %22
  %25 = add nuw nsw i32 %.1.i, 1
  %26 = zext nneg i32 %.1.i to i64
  %27 = getelementptr inbounds nuw i8, ptr %2, i64 %26
  store i8 108, ptr %27, align 1, !tbaa !9
  br label %unmakemask.exit

unmakemask.exit:                                  ; preds = %22, %24
  %.2.i = phi i32 [ %25, %24 ], [ %.1.i, %22 ]
  %28 = zext nneg i32 %.2.i to i64
  %29 = getelementptr inbounds nuw i8, ptr %2, i64 %28
  store i8 0, ptr %29, align 1, !tbaa !9
  call void @lua_pushstring(ptr noundef %0, ptr noundef nonnull %2) #8
  %30 = call i32 @lua_gethookcount(ptr noundef %.0.i) #8
  %31 = sext i32 %30 to i64
  call void @lua_pushinteger(ptr noundef %0, i64 noundef %31) #8
  call void @llvm.lifetime.end.p0(i64 5, ptr nonnull %2) #8
  ret i32 3
}